; Function Attrs: nounwind uwtable
define hidden void @freeNativeStringArray(ptr noundef %0, i32 noundef %1) local_unnamed_addr #0 {
  %3 = icmp eq ptr %0, null
  br i1 %3, label %7, label %.preheader

.preheader:                                       ; preds = %2
  %4 = icmp sgt i32 %1, 0
  br i1 %4, label %.lr.ph.preheader, label %._crit_edge

.lr.ph.preheader:                                 ; preds = %.preheader
  %wide.trip.count = zext nneg i32 %1 to i64
  br label %.lr.ph

.lr.ph:                                           ; preds = %.lr.ph.preheader, %.lr.ph
  %indvars.iv = phi i64 [ 0, %.lr.ph.preheader ], [ %indvars.iv.next, %.lr.ph ]
  %5 = getelementptr inbounds ptr, ptr %0, i64 %indvars.iv
  %6 = load ptr, ptr %5, align 8
  tail call void @free(ptr noundef %6) #14
  %indvars.iv.next = add nuw nsw i64 %indvars.iv, 1
  %exitcond.not = icmp eq i64 %indvars.iv.next, %wide.trip.count
  br i1 %exitcond.not, label %._crit_edge, label %.lr.ph, !llvm.loop !6

._crit_edge:                                      ; preds = %.lr.ph, %.preheader
  tail call void @free(ptr noundef nonnull %0) #14
  br label %7

7:                                                ; preds = %2, %._crit_edge
  ret void
}